; Function Attrs: nounwind uwtable
define internal i32 @http_get_short_seek(ptr noundef readonly captures(none) %0) #2 {
  %2 = getelementptr inbounds nuw i8, ptr %0, i64 16
  %3 = load ptr, ptr %2, align 8, !tbaa !4
  %4 = getelementptr inbounds nuw i8, ptr %3, i64 10400
  %5 = load i32, ptr %4, align 8, !tbaa !102
  %6 = icmp sgt i32 %5, 0
  br i1 %6, label %11, label %7

7:                                                ; preds = %1
  %8 = getelementptr inbounds nuw i8, ptr %3, i64 8
  %9 = load ptr, ptr %8, align 8, !tbaa !37
  %10 = tail call i32 @ffurl_get_short_seek(ptr noundef %9) #15
  br label %11

11:                                               ; preds = %1, %7
  %.0 = phi i32 [ %10, %7 ], [ %5, %1 ]
  ret i32 %.0
}